target datalayout = "e-m:e-p270:32:32-p271:32:32-p272:64:64-i64:64-i128:128-f80:128-n8:16:32:64-S128"
target triple = "x86_64-pc-linux-gnu"

%struct._address = type { i32, i32, ptr, ptr }
%struct._packet_info = type { ptr, ptr, i32, i32, %struct.nstime_t, %struct.nstime_t, %struct.nstime_t, i8, ptr, ptr, ptr, ptr, %struct._address, %struct._address, %struct._address, %struct._address, %struct._address, %struct._address, i32, ptr, i8, [3 x i8], %struct.anon, i32, i32, i32, i32, ptr, i8, ptr, ptr, i16, i16, i32, i32, i16, i32, i32, ptr, ptr, ptr, i8, i8, i16, i16, i16, i32, i16, i16, ptr, ptr, ptr, ptr, ptr, i32, i32 }
%struct.nstime_t = type { i64, i32 }
%struct.anon = type { i8, [3 x i8] }
%struct.SslPacketInfo = type { ptr, ptr, i32, i32, i32 }
%struct._follow_info = type { i32, ptr, ptr, [2 x i32], [2 x i32], [2 x ptr], i32, i32, %struct._address, %struct._address, ptr, i64 }
%struct._SslRecordInfo = type { ptr, i32, i32, i32, ptr, i32, i16, ptr }
%struct.follow_record_t = type { i8, i32, i32, %struct.nstime_t, ptr }

; Function Attrs: inlinehint nounwind null_pointer_is_valid sspstrong uwtable
define internal void @clear_address(ptr noundef %0) #10 {
  %2 = alloca ptr, align 8
  store ptr %0, ptr %2, align 8
  %3 = load ptr, ptr %2, align 8
  %4 = getelementptr inbounds nuw %struct._address, ptr %3, i32 0, i32 0
  store i32 0, ptr %4, align 8
  %5 = load ptr, ptr %2, align 8
  %6 = getelementptr inbounds nuw %struct._address, ptr %5, i32 0, i32 1
  store i32 0, ptr %6, align 4
  %7 = load ptr, ptr %2, align 8
  %8 = getelementptr inbounds nuw %struct._address, ptr %7, i32 0, i32 2
  store ptr null, ptr %8, align 8
  %9 = load ptr, ptr %2, align 8
  %10 = getelementptr inbounds nuw %struct._address, ptr %9, i32 0, i32 3
  store ptr null, ptr %10, align 8
  ret void
}

; Function Attrs: inlinehint null_pointer_is_valid sspstrong uwtable
define internal void @alloc_address_wmem(ptr noundef %0, ptr noundef %1, i32 noundef %2, i32 noundef %3, ptr noundef %4) #14 {
  %6 = alloca ptr, align 8
  %7 = alloca ptr, align 8
  %8 = alloca i32, align 4
  %9 = alloca i32, align 4
  %10 = alloca ptr, align 8
  store ptr %0, ptr %6, align 8
  store ptr %1, ptr %7, align 8
  store i32 %2, ptr %8, align 4
  store i32 %3, ptr %9, align 4
  store ptr %4, ptr %10, align 8
  br label %11

11:                                               ; preds = %5
  br label %12

12:                                               ; preds = %11
  %13 = load ptr, ptr %7, align 8
  call void @clear_address(ptr noundef %13)
  %14 = load i32, ptr %8, align 4
  %15 = load ptr, ptr %7, align 8
  %16 = getelementptr inbounds nuw %struct._address, ptr %15, i32 0, i32 0
  store i32 %14, ptr %16, align 8
  %17 = load i32, ptr %9, align 4
  %18 = icmp eq i32 %17, 0
  br i1 %18, label %19, label %22

19:                                               ; preds = %12
  br label %20

20:                                               ; preds = %19
  br label %21

21:                                               ; preds = %20
  br label %39

22:                                               ; preds = %12
  br label %23

23:                                               ; preds = %22
  br label %24

24:                                               ; preds = %23
  br label %25

25:                                               ; preds = %24
  br label %26

26:                                               ; preds = %25
  %27 = load ptr, ptr %6, align 8
  %28 = load ptr, ptr %10, align 8
  %29 = load i32, ptr %9, align 4
  %30 = sext i32 %29 to i64
  %31 = call ptr @wmem_memdup(ptr noundef %27, ptr noundef %28, i64 noundef %30) #24
  %32 = load ptr, ptr %7, align 8
  %33 = getelementptr inbounds nuw %struct._address, ptr %32, i32 0, i32 3
  store ptr %31, ptr %33, align 8
  %34 = load ptr, ptr %7, align 8
  %35 = getelementptr inbounds nuw %struct._address, ptr %34, i32 0, i32 2
  store ptr %31, ptr %35, align 8
  %36 = load i32, ptr %9, align 4
  %37 = load ptr, ptr %7, align 8
  %38 = getelementptr inbounds nuw %struct._address, ptr %37, i32 0, i32 1
  store i32 %36, ptr %38, align 4
  br label %39

39:                                               ; preds = %26, %21
  ret void
}

; Function Attrs: inlinehint null_pointer_is_valid sspstrong uwtable
define internal void @copy_address_wmem(ptr noundef %0, ptr noundef %1, ptr noundef %2) #14 {
  %4 = alloca ptr, align 8
  %5 = alloca ptr, align 8
  %6 = alloca ptr, align 8
  store ptr %0, ptr %4, align 8
  store ptr %1, ptr %5, align 8
  store ptr %2, ptr %6, align 8
  %7 = load ptr, ptr %4, align 8
  %8 = load ptr, ptr %5, align 8
  %9 = load ptr, ptr %6, align 8
  %10 = getelementptr inbounds nuw %struct._address, ptr %9, i32 0, i32 0
  %11 = load i32, ptr %10, align 8
  %12 = load ptr, ptr %6, align 8
  %13 = getelementptr inbounds nuw %struct._address, ptr %12, i32 0, i32 1
  %14 = load i32, ptr %13, align 4
  %15 = load ptr, ptr %6, align 8
  %16 = getelementptr inbounds nuw %struct._address, ptr %15, i32 0, i32 2
  %17 = load ptr, ptr %16, align 8
  call void @alloc_address_wmem(ptr noundef %7, ptr noundef %8, i32 noundef %11, i32 noundef %14, ptr noundef %17)
  ret void
}

; Function Attrs: inlinehint nounwind null_pointer_is_valid sspstrong uwtable
define internal zeroext i1 @addresses_equal(ptr noundef %0, ptr noundef %1) #10 {
  %3 = alloca i1, align 1
  %4 = alloca ptr, align 8
  %5 = alloca ptr, align 8
  store ptr %0, ptr %4, align 8
  store ptr %1, ptr %5, align 8
  %6 = load ptr, ptr %4, align 8
  %7 = getelementptr inbounds nuw %struct._address, ptr %6, i32 0, i32 0
  %8 = load i32, ptr %7, align 8
  %9 = load ptr, ptr %5, align 8
  %10 = getelementptr inbounds nuw %struct._address, ptr %9, i32 0, i32 0
  %11 = load i32, ptr %10, align 8
  %12 = icmp eq i32 %8, %11
  br i1 %12, label %13, label %40

13:                                               ; preds = %2
  %14 = load ptr, ptr %4, align 8
  %15 = getelementptr inbounds nuw %struct._address, ptr %14, i32 0, i32 1
  %16 = load i32, ptr %15, align 4
  %17 = load ptr, ptr %5, align 8
  %18 = getelementptr inbounds nuw %struct._address, ptr %17, i32 0, i32 1
  %19 = load i32, ptr %18, align 4
  %20 = icmp eq i32 %16, %19
  br i1 %20, label %21, label %40

21:                                               ; preds = %13
  %22 = load ptr, ptr %4, align 8
  %23 = getelementptr inbounds nuw %struct._address, ptr %22, i32 0, i32 1
  %24 = load i32, ptr %23, align 4
  %25 = icmp eq i32 %24, 0
  br i1 %25, label %39, label %26

26:                                               ; preds = %21
  %27 = load ptr, ptr %4, align 8
  %28 = getelementptr inbounds nuw %struct._address, ptr %27, i32 0, i32 2
  %29 = load ptr, ptr %28, align 8
  %30 = load ptr, ptr %5, align 8
  %31 = getelementptr inbounds nuw %struct._address, ptr %30, i32 0, i32 2
  %32 = load ptr, ptr %31, align 8
  %33 = load ptr, ptr %4, align 8
  %34 = getelementptr inbounds nuw %struct._address, ptr %33, i32 0, i32 1
  %35 = load i32, ptr %34, align 4
  %36 = sext i32 %35 to i64
  %37 = call i32 @memcmp(ptr noundef %29, ptr noundef %32, i64 noundef %36) #20
  %38 = icmp eq i32 %37, 0
  br i1 %38, label %39, label %40

39:                                               ; preds = %26, %21
  store i1 true, ptr %3, align 1
  br label %41

40:                                               ; preds = %26, %13, %2
  store i1 false, ptr %3, align 1
  br label %41

41:                                               ; preds = %40, %39
  %42 = load i1, ptr %3, align 1
  ret i1 %42
}

; Function Attrs: inlinehint null_pointer_is_valid sspstrong uwtable
define internal void @copy_address(ptr noundef %0, ptr noundef %1) #14 {
  %3 = alloca ptr, align 8
  %4 = alloca ptr, align 8
  store ptr %0, ptr %3, align 8
  store ptr %1, ptr %4, align 8
  %5 = load ptr, ptr %3, align 8
  %6 = load ptr, ptr %4, align 8
  call void @copy_address_wmem(ptr noundef null, ptr noundef %5, ptr noundef %6)
  ret void
}

; Function Attrs: null_pointer_is_valid sspstrong uwtable
define internal i32 @ssl_follow_tap_listener(ptr noundef %0, ptr noundef %1, ptr noundef %2, ptr noundef %3, i32 noundef %4) #0 {
  %6 = alloca i32, align 4
  %7 = alloca ptr, align 8
  %8 = alloca ptr, align 8
  %9 = alloca ptr, align 8
  %10 = alloca ptr, align 8
  %11 = alloca i32, align 4
  %12 = alloca ptr, align 8
  %13 = alloca ptr, align 8
  %14 = alloca ptr, align 8
  %15 = alloca ptr, align 8
  %16 = alloca i32, align 4
  %17 = alloca i32, align 4
  %18 = alloca i64, align 8
  %19 = alloca i64, align 8
  %20 = alloca ptr, align 8
  %21 = alloca ptr, align 8
  store ptr %0, ptr %7, align 8
  store ptr %1, ptr %8, align 8
  store ptr %2, ptr %9, align 8
  store ptr %3, ptr %10, align 8
  store i32 %4, ptr %11, align 4
  call void @llvm.lifetime.start.p0(i64 8, ptr %12) #18
  %22 = load ptr, ptr %7, align 8
  store ptr %22, ptr %12, align 8
  call void @llvm.lifetime.start.p0(i64 8, ptr %13) #18
  store ptr null, ptr %13, align 8
  call void @llvm.lifetime.start.p0(i64 8, ptr %14) #18
  store ptr null, ptr %14, align 8
  call void @llvm.lifetime.start.p0(i64 8, ptr %15) #18
  %23 = load ptr, ptr %10, align 8
  store ptr %23, ptr %15, align 8
  call void @llvm.lifetime.start.p0(i64 4, ptr %16) #18
  store i32 0, ptr %16, align 4
  %24 = load ptr, ptr %15, align 8
  %25 = icmp ne ptr %24, null
  br i1 %25, label %26, label %31

26:                                               ; preds = %5
  %27 = load ptr, ptr %15, align 8
  %28 = getelementptr inbounds nuw %struct.SslPacketInfo, ptr %27, i32 0, i32 0
  %29 = load ptr, ptr %28, align 8
  %30 = icmp ne ptr %29, null
  br i1 %30, label %32, label %31

31:                                               ; preds = %26, %5
  store i32 0, ptr %6, align 4
  store i32 1, ptr %17, align 4
  br label %181

32:                                               ; preds = %26
  %33 = load ptr, ptr %12, align 8
  %34 = getelementptr inbounds nuw %struct._follow_info, ptr %33, i32 0, i32 6
  %35 = load i32, ptr %34, align 8
  %36 = icmp eq i32 %35, 0
  br i1 %36, label %37, label %56

37:                                               ; preds = %32
  %38 = load ptr, ptr %8, align 8
  %39 = getelementptr inbounds nuw %struct._packet_info, ptr %38, i32 0, i32 24
  %40 = load i32, ptr %39, align 4
  %41 = load ptr, ptr %12, align 8
  %42 = getelementptr inbounds nuw %struct._follow_info, ptr %41, i32 0, i32 6
  store i32 %40, ptr %42, align 8
  %43 = load ptr, ptr %12, align 8
  %44 = getelementptr inbounds nuw %struct._follow_info, ptr %43, i32 0, i32 8
  %45 = load ptr, ptr %8, align 8
  %46 = getelementptr inbounds nuw %struct._packet_info, ptr %45, i32 0, i32 16
  call void @copy_address(ptr noundef %44, ptr noundef %46)
  %47 = load ptr, ptr %8, align 8
  %48 = getelementptr inbounds nuw %struct._packet_info, ptr %47, i32 0, i32 25
  %49 = load i32, ptr %48, align 8
  %50 = load ptr, ptr %12, align 8
  %51 = getelementptr inbounds nuw %struct._follow_info, ptr %50, i32 0, i32 7
  store i32 %49, ptr %51, align 4
  %52 = load ptr, ptr %12, align 8
  %53 = getelementptr inbounds nuw %struct._follow_info, ptr %52, i32 0, i32 9
  %54 = load ptr, ptr %8, align 8
  %55 = getelementptr inbounds nuw %struct._packet_info, ptr %54, i32 0, i32 17
  call void @copy_address(ptr noundef %53, ptr noundef %55)
  br label %56

56:                                               ; preds = %37, %32
  %57 = load ptr, ptr %12, align 8
  %58 = getelementptr inbounds nuw %struct._follow_info, ptr %57, i32 0, i32 8
  %59 = load ptr, ptr %8, align 8
  %60 = getelementptr inbounds nuw %struct._packet_info, ptr %59, i32 0, i32 16
  %61 = call zeroext i1 @addresses_equal(ptr noundef %58, ptr noundef %60)
  br i1 %61, label %62, label %71

62:                                               ; preds = %56
  %63 = load ptr, ptr %12, align 8
  %64 = getelementptr inbounds nuw %struct._follow_info, ptr %63, i32 0, i32 6
  %65 = load i32, ptr %64, align 8
  %66 = load ptr, ptr %8, align 8
  %67 = getelementptr inbounds nuw %struct._packet_info, ptr %66, i32 0, i32 24
  %68 = load i32, ptr %67, align 4
  %69 = icmp eq i32 %65, %68
  br i1 %69, label %70, label %71

70:                                               ; preds = %62
  store i32 0, ptr %16, align 4
  br label %72

71:                                               ; preds = %62, %56
  store i32 1, ptr %16, align 4
  br label %72

72:                                               ; preds = %71, %70
  %73 = load ptr, ptr %15, align 8
  %74 = getelementptr inbounds nuw %struct.SslPacketInfo, ptr %73, i32 0, i32 0
  %75 = load ptr, ptr %74, align 8
  store ptr %75, ptr %14, align 8
  br label %76

76:                                               ; preds = %176, %72
  %77 = load ptr, ptr %14, align 8
  %78 = icmp ne ptr %77, null
  br i1 %78, label %79, label %180

79:                                               ; preds = %76
  %80 = load ptr, ptr %14, align 8
  %81 = getelementptr inbounds nuw %struct._SslRecordInfo, ptr %80, i32 0, i32 3
  %82 = load i32, ptr %81, align 8
  %83 = icmp ne i32 %82, 23
  br i1 %83, label %84, label %85

84:                                               ; preds = %79
  br label %176

85:                                               ; preds = %79
  %86 = load ptr, ptr %14, align 8
  %87 = getelementptr inbounds nuw %struct._SslRecordInfo, ptr %86, i32 0, i32 5
  %88 = load i32, ptr %87, align 8
  %89 = load ptr, ptr %12, align 8
  %90 = getelementptr inbounds nuw %struct._follow_info, ptr %89, i32 0, i32 3
  %91 = load i32, ptr %16, align 4
  %92 = zext i32 %91 to i64
  %93 = getelementptr [2 x i32], ptr %90, i64 0, i64 %92
  %94 = load i32, ptr %93, align 4
  %95 = icmp ult i32 %88, %94
  br i1 %95, label %96, label %97

96:                                               ; preds = %85
  br label %176

97:                                               ; preds = %85
  call void @llvm.lifetime.start.p0(i64 8, ptr %18) #18
  store i64 1, ptr %18, align 8
  call void @llvm.lifetime.start.p0(i64 8, ptr %19) #18
  store i64 40, ptr %19, align 8
  call void @llvm.lifetime.start.p0(i64 8, ptr %20) #18
  %98 = load i64, ptr %19, align 8
  %99 = icmp eq i64 %98, 1
  br i1 %99, label %100, label %103

100:                                              ; preds = %97
  %101 = load i64, ptr %18, align 8
  %102 = call noalias ptr @g_malloc(i64 noundef %101) #21
  store ptr %102, ptr %20, align 8
  br label %124

103:                                              ; preds = %97
  %104 = load i64, ptr %18, align 8
  %105 = call i1 @llvm.is.constant.i64(i64 %104)
  br i1 %105, label %106, label %119

106:                                              ; preds = %103
  %107 = load i64, ptr %19, align 8
  %108 = icmp eq i64 %107, 0
  br i1 %108, label %114, label %109

109:                                              ; preds = %106
  %110 = load i64, ptr %18, align 8
  %111 = load i64, ptr %19, align 8
  %112 = udiv i64 -1, %111
  %113 = icmp ule i64 %110, %112
  br i1 %113, label %114, label %119

114:                                              ; preds = %109, %106
  %115 = load i64, ptr %18, align 8
  %116 = load i64, ptr %19, align 8
  %117 = mul i64 %115, %116
  %118 = call noalias ptr @g_malloc(i64 noundef %117) #21
  store ptr %118, ptr %20, align 8
  br label %123

119:                                              ; preds = %109, %103
  %120 = load i64, ptr %18, align 8
  %121 = load i64, ptr %19, align 8
  %122 = call noalias ptr @g_malloc_n(i64 noundef %120, i64 noundef %121) #22
  store ptr %122, ptr %20, align 8
  br label %123

123:                                              ; preds = %119, %114
  br label %124

124:                                              ; preds = %123, %100
  %125 = load ptr, ptr %20, align 8
  store ptr %125, ptr %21, align 8
  call void @llvm.lifetime.end.p0(i64 8, ptr %20) #18
  call void @llvm.lifetime.end.p0(i64 8, ptr %19) #18
  call void @llvm.lifetime.end.p0(i64 8, ptr %18) #18
  %126 = load ptr, ptr %21, align 8
  store ptr %126, ptr %13, align 8
  %127 = load i32, ptr %16, align 4
  %128 = icmp eq i32 %127, 1
  %129 = load ptr, ptr %13, align 8
  %130 = getelementptr inbounds nuw %struct.follow_record_t, ptr %129, i32 0, i32 0
  %131 = zext i1 %128 to i8
  store i8 %131, ptr %130, align 8
  %132 = load ptr, ptr %8, align 8
  %133 = getelementptr inbounds nuw %struct._packet_info, ptr %132, i32 0, i32 3
  %134 = load i32, ptr %133, align 4
  %135 = load ptr, ptr %13, align 8
  %136 = getelementptr inbounds nuw %struct.follow_record_t, ptr %135, i32 0, i32 1
  store i32 %134, ptr %136, align 4
  %137 = load ptr, ptr %13, align 8
  %138 = getelementptr inbounds nuw %struct.follow_record_t, ptr %137, i32 0, i32 3
  %139 = load ptr, ptr %8, align 8
  %140 = getelementptr inbounds nuw %struct._packet_info, ptr %139, i32 0, i32 4
  call void @llvm.memcpy.p0.p0.i64(ptr align 8 %138, ptr align 8 %140, i64 16, i1 false)
  %141 = load ptr, ptr %14, align 8
  %142 = getelementptr inbounds nuw %struct._SslRecordInfo, ptr %141, i32 0, i32 1
  %143 = load i32, ptr %142, align 8
  %144 = call ptr @g_byte_array_sized_new(i32 noundef %143)
  %145 = load ptr, ptr %13, align 8
  %146 = getelementptr inbounds nuw %struct.follow_record_t, ptr %145, i32 0, i32 4
  store ptr %144, ptr %146, align 8
  %147 = load ptr, ptr %13, align 8
  %148 = getelementptr inbounds nuw %struct.follow_record_t, ptr %147, i32 0, i32 4
  %149 = load ptr, ptr %148, align 8
  %150 = load ptr, ptr %14, align 8
  %151 = getelementptr inbounds nuw %struct._SslRecordInfo, ptr %150, i32 0, i32 0
  %152 = load ptr, ptr %151, align 8
  %153 = load ptr, ptr %14, align 8
  %154 = getelementptr inbounds nuw %struct._SslRecordInfo, ptr %153, i32 0, i32 1
  %155 = load i32, ptr %154, align 8
  %156 = call ptr @g_byte_array_append(ptr noundef %149, ptr noundef %152, i32 noundef %155)
  %157 = load ptr, ptr %13, align 8
  %158 = getelementptr inbounds nuw %struct.follow_record_t, ptr %157, i32 0, i32 4
  store ptr %156, ptr %158, align 8
  %159 = load ptr, ptr %12, align 8
  %160 = getelementptr inbounds nuw %struct._follow_info, ptr %159, i32 0, i32 2
  %161 = load ptr, ptr %160, align 8
  %162 = load ptr, ptr %13, align 8
  %163 = call ptr @g_list_prepend(ptr noundef %161, ptr noundef %162)
  %164 = load ptr, ptr %12, align 8
  %165 = getelementptr inbounds nuw %struct._follow_info, ptr %164, i32 0, i32 2
  store ptr %163, ptr %165, align 8
  %166 = load ptr, ptr %14, align 8
  %167 = getelementptr inbounds nuw %struct._SslRecordInfo, ptr %166, i32 0, i32 1
  %168 = load i32, ptr %167, align 8
  %169 = load ptr, ptr %12, align 8
  %170 = getelementptr inbounds nuw %struct._follow_info, ptr %169, i32 0, i32 3
  %171 = load i32, ptr %16, align 4
  %172 = zext i32 %171 to i64
  %173 = getelementptr [2 x i32], ptr %170, i64 0, i64 %172
  %174 = load i32, ptr %173, align 4
  %175 = add i32 %174, %168
  store i32 %175, ptr %173, align 4
  br label %176

176:                                              ; preds = %124, %96, %84
  %177 = load ptr, ptr %14, align 8
  %178 = getelementptr inbounds nuw %struct._SslRecordInfo, ptr %177, i32 0, i32 7
  %179 = load ptr, ptr %178, align 8
  store ptr %179, ptr %14, align 8
  br label %76, !llvm.loop !12

180:                                              ; preds = %76
  store i32 0, ptr %6, align 4
  store i32 1, ptr %17, align 4
  br label %181

181:                                              ; preds = %180, %31
  call void @llvm.lifetime.end.p0(i64 4, ptr %16) #18
  call void @llvm.lifetime.end.p0(i64 8, ptr %15) #18
  call void @llvm.lifetime.end.p0(i64 8, ptr %14) #18
  call void @llvm.lifetime.end.p0(i64 8, ptr %13) #18
  call void @llvm.lifetime.end.p0(i64 8, ptr %12) #18
  %182 = load i32, ptr %6, align 4
  ret i32 %182
}