; Function Attrs: null_pointer_is_valid sspstrong uwtable
define internal noundef i32 @ssl_follow_tap_listener(ptr noundef captures(none) %0, ptr noundef readonly captures(none) %1, ptr readnone captures(none) %2, ptr noundef readonly captures(address_is_null) %3, i32 %4) #0 {
  %.not = icmp eq ptr %3, null
  br i1 %.not, label %.loopexit, label %6

6:                                                ; preds = %5
  %7 = load ptr, ptr %3, align 8
  %.not57 = icmp eq ptr %7, null
  br i1 %.not57, label %.loopexit, label %8

8:                                                ; preds = %6
  %9 = getelementptr inbounds nuw i8, ptr %0, i64 56
  %10 = load i32, ptr %9, align 8
  %11 = icmp eq i32 %10, 0
  br i1 %11, label %12, label %copy_address.exit60

12:                                               ; preds = %8
  %13 = getelementptr inbounds nuw i8, ptr %1, i64 284
  %14 = load i32, ptr %13, align 4
  store i32 %14, ptr %9, align 8
  %15 = getelementptr inbounds nuw i8, ptr %0, i64 64
  %16 = getelementptr inbounds nuw i8, ptr %1, i64 208
  %17 = load i32, ptr %16, align 8
  %18 = getelementptr inbounds nuw i8, ptr %1, i64 212
  %19 = load i32, ptr %18, align 4
  %20 = getelementptr inbounds nuw i8, ptr %1, i64 216
  %21 = load ptr, ptr %20, align 8
  tail call void @llvm.memset.p0.i64(ptr noundef nonnull align 8 dereferenceable(24) %15, i8 0, i64 24, i1 false)
  store i32 %17, ptr %15, align 8
  %22 = icmp eq i32 %19, 0
  br i1 %22, label %copy_address.exit, label %23

23:                                               ; preds = %12
  %24 = sext i32 %19 to i64
  %25 = tail call ptr @wmem_memdup(ptr noundef null, ptr noundef %21, i64 noundef %24) #17
  %26 = getelementptr inbounds nuw i8, ptr %0, i64 80
  store ptr %25, ptr %26, align 8
  %27 = getelementptr inbounds nuw i8, ptr %0, i64 72
  store ptr %25, ptr %27, align 8
  %28 = getelementptr inbounds nuw i8, ptr %0, i64 68
  store i32 %19, ptr %28, align 4
  br label %copy_address.exit

copy_address.exit:                                ; preds = %12, %23
  %29 = getelementptr inbounds nuw i8, ptr %1, i64 288
  %30 = load i32, ptr %29, align 8
  %31 = getelementptr inbounds nuw i8, ptr %0, i64 60
  store i32 %30, ptr %31, align 4
  %32 = getelementptr inbounds nuw i8, ptr %0, i64 88
  %33 = getelementptr inbounds nuw i8, ptr %1, i64 232
  %34 = load i32, ptr %33, align 8
  %35 = getelementptr inbounds nuw i8, ptr %1, i64 236
  %36 = load i32, ptr %35, align 4
  %37 = getelementptr inbounds nuw i8, ptr %1, i64 240
  %38 = load ptr, ptr %37, align 8
  tail call void @llvm.memset.p0.i64(ptr noundef nonnull align 8 dereferenceable(24) %32, i8 0, i64 24, i1 false)
  store i32 %34, ptr %32, align 8
  %39 = icmp eq i32 %36, 0
  br i1 %39, label %copy_address.exit60, label %40

40:                                               ; preds = %copy_address.exit
  %41 = sext i32 %36 to i64
  %42 = tail call ptr @wmem_memdup(ptr noundef null, ptr noundef %38, i64 noundef %41) #17
  %43 = getelementptr inbounds nuw i8, ptr %0, i64 104
  store ptr %42, ptr %43, align 8
  %44 = getelementptr inbounds nuw i8, ptr %0, i64 96
  store ptr %42, ptr %44, align 8
  %45 = getelementptr inbounds nuw i8, ptr %0, i64 92
  store i32 %36, ptr %45, align 4
  br label %copy_address.exit60

copy_address.exit60:                              ; preds = %40, %copy_address.exit, %8
  %46 = getelementptr inbounds nuw i8, ptr %0, i64 64
  %47 = getelementptr inbounds nuw i8, ptr %1, i64 208
  %48 = load i32, ptr %46, align 8
  %49 = load i32, ptr %47, align 8
  %50 = icmp eq i32 %48, %49
  br i1 %50, label %51, label %addresses_equal.exit

51:                                               ; preds = %copy_address.exit60
  %52 = getelementptr inbounds nuw i8, ptr %0, i64 68
  %53 = load i32, ptr %52, align 4
  %54 = getelementptr inbounds nuw i8, ptr %1, i64 212
  %55 = load i32, ptr %54, align 4
  %56 = icmp eq i32 %53, %55
  br i1 %56, label %57, label %addresses_equal.exit

57:                                               ; preds = %51
  %58 = icmp eq i32 %53, 0
  br i1 %58, label %66, label %59

59:                                               ; preds = %57
  %60 = getelementptr inbounds nuw i8, ptr %0, i64 72
  %61 = load ptr, ptr %60, align 8
  %62 = getelementptr inbounds nuw i8, ptr %1, i64 216
  %63 = load ptr, ptr %62, align 8
  %64 = sext i32 %53 to i64
  %bcmp.i = tail call i32 @bcmp(ptr %61, ptr %63, i64 %64)
  %65 = icmp eq i32 %bcmp.i, 0
  br i1 %65, label %66, label %addresses_equal.exit

66:                                               ; preds = %59, %57
  %67 = load i32, ptr %9, align 8
  %68 = getelementptr inbounds nuw i8, ptr %1, i64 284
  %69 = load i32, ptr %68, align 4
  %70 = icmp eq i32 %67, %69
  br i1 %70, label %71, label %addresses_equal.exit

addresses_equal.exit:                             ; preds = %59, %51, %copy_address.exit60, %66
  br label %71

71:                                               ; preds = %66, %addresses_equal.exit
  %72 = phi i8 [ 1, %addresses_equal.exit ], [ 0, %66 ]
  %.056 = phi i64 [ 1, %addresses_equal.exit ], [ 0, %66 ]
  %.05562 = load ptr, ptr %3, align 8
  %.not5863 = icmp eq ptr %.05562, null
  br i1 %.not5863, label %.loopexit, label %.lr.ph

.lr.ph:                                           ; preds = %71
  %73 = getelementptr inbounds nuw i8, ptr %0, i64 24
  %74 = getelementptr [2 x i32], ptr %73, i64 0, i64 %.056
  %75 = getelementptr inbounds nuw i8, ptr %1, i64 20
  %76 = getelementptr inbounds nuw i8, ptr %1, i64 24
  %77 = getelementptr inbounds nuw i8, ptr %0, i64 16
  br label %78

78:                                               ; preds = %.lr.ph, %103
  %.05564 = phi ptr [ %.05562, %.lr.ph ], [ %.055, %103 ]
  %79 = getelementptr inbounds nuw i8, ptr %.05564, i64 16
  %80 = load i32, ptr %79, align 8
  %.not59 = icmp eq i32 %80, 23
  br i1 %.not59, label %81, label %103

81:                                               ; preds = %78
  %82 = getelementptr inbounds nuw i8, ptr %.05564, i64 32
  %83 = load i32, ptr %82, align 8
  %84 = load i32, ptr %74, align 4
  %85 = icmp ult i32 %83, %84
  br i1 %85, label %103, label %86

86:                                               ; preds = %81
  %87 = tail call noalias dereferenceable_or_null(40) ptr @g_malloc(i64 noundef 40) #18
  store i8 %72, ptr %87, align 8
  %88 = load i32, ptr %75, align 4
  %89 = getelementptr inbounds nuw i8, ptr %87, i64 4
  store i32 %88, ptr %89, align 4
  %90 = getelementptr inbounds nuw i8, ptr %87, i64 16
  tail call void @llvm.memcpy.p0.p0.i64(ptr noundef nonnull align 8 dereferenceable(16) %90, ptr noundef nonnull align 8 dereferenceable(16) %76, i64 16, i1 false)
  %91 = getelementptr inbounds nuw i8, ptr %.05564, i64 8
  %92 = load i32, ptr %91, align 8
  %93 = tail call ptr @g_byte_array_sized_new(i32 noundef %92)
  %94 = getelementptr inbounds nuw i8, ptr %87, i64 32
  store ptr %93, ptr %94, align 8
  %95 = load ptr, ptr %.05564, align 8
  %96 = load i32, ptr %91, align 8
  %97 = tail call ptr @g_byte_array_append(ptr noundef %93, ptr noundef %95, i32 noundef %96)
  store ptr %97, ptr %94, align 8
  %98 = load ptr, ptr %77, align 8
  %99 = tail call ptr @g_list_prepend(ptr noundef %98, ptr noundef %87)
  store ptr %99, ptr %77, align 8
  %100 = load i32, ptr %91, align 8
  %101 = load i32, ptr %74, align 4
  %102 = add i32 %101, %100
  store i32 %102, ptr %74, align 4
  br label %103

103:                                              ; preds = %81, %78, %86
  %104 = getelementptr inbounds nuw i8, ptr %.05564, i64 40
  %.055 = load ptr, ptr %104, align 8
  %.not58 = icmp eq ptr %.055, null
  br i1 %.not58, label %.loopexit, label %78, !llvm.loop !13

.loopexit:                                        ; preds = %103, %71, %5, %6
  ret i32 0
}